(dp0
S'rC:dC,9'
p1
F0.31164095346794457
sS'rC:dC,8'
p2
F0.3048036119346821
sS'rG:dA,8'
p3
F0.3089759781294572
sS'rG:dG,19'
p4
F-1.140459768757725
sS'rG:dG,18'
p5
F-1.300686220215879
sS'rG:dG,15'
p6
F-1.4841262128756403
sS'rG:dG,14'
p7
F-1.6223301170198063
sS'rG:dG,17'
p8
F-1.550579476408482
sS'rG:dG,16'
p9
F-1.2047101994346594
sS'rC:dC,20'
p10
F-0.08055753566731375
sS'rG:dT,20'
p11
F-0.06181306487684691
sS'rG:dG,13'
p12
F-1.0917932198875926
sS'rG:dG,12'
p13
F-0.6764361369661918
sS'rC:dT,13'
p14
F-0.9690569333305729
sS'rC:dT,18'
p15
F-0.8294920514226125
sS'rC:dC,3'
p16
F-0.0038138947713506396
sS'rU:dG,12'
p17
F-0.14567323427686488
sS'rA:dG,13'
p18
F-0.37897552983014887
sS'rA:dG,12'
p19
F0.24386654953073741
sS'rA:dG,11'
p20
F0.2541817950475418
sS'rA:dG,10'
p21
F0.6195195210311606
sS'rA:dA,19'
p22
F-0.6763281563057818
sS'rA:dA,18'
p23
F-0.1943792531047565
sS'rA:dG,15'
p24
F-0.968850637914146
sS'rA:dG,14'
p25
F-1.0435719360737092
sS'rA:dA,15'
p26
F-0.2639562260615635
sS'rA:dA,14'
p27
F-0.5916054181003858
sS'rA:dA,17'
p28
F-0.1490589690267965
sS'rA:dA,16'
p29
F0.28419495612920437
sS'rA:dA,11'
p30
F0.49713842409302134
sS'rA:dA,10'
p31
F0.8226142102324701
sS'rA:dA,13'
p32
F0.2375613547345318
sS'rA:dA,12'
p33
F0.6085451453479406
sS'rG:dA,13'
p34
F-0.717614176076417
sS'rG:dA,12'
p35
F-0.30544996587118245
sS'rG:dA,11'
p36
F-0.5898565384889252
sS'rG:dA,10'
p37
F-0.17788734129515513
sS'rG:dA,17'
p38
F-1.0634843251697637
sS'rG:dA,16'
p39
F-0.6526303216540028
sS'rG:dA,15'
p40
F-1.33531776573632
sS'rG:dA,14'
p41
F-1.5860174592951861
sS'rG:dT,10'
p42
F0.3870085683907094
sS'rG:dA,19'
p43
F-0.927287231436659
sS'rG:dA,18'
p44
F-0.8718309911539271
sS'rC:dT,15'
p45
F-0.6397406638803564
sS'rA:dC,4'
p46
F1.149592310077282
sS'rA:dG,9'
p47
F0.7805983244528981
sS'rA:dG,8'
p48
F0.9263671835812703
sS'rC:dA,3'
p49
F0.34116897601714163
sS'rC:dA,2'
p50
F1.3165862170845029
sS'rC:dA,1'
p51
F1.57677202886304
sS'rC:dA,7'
p52
F0.8005838230124258
sS'rC:dA,6'
p53
F1.3170533582174737
sS'rC:dA,5'
p54
F0.9753086360565486
sS'rC:dA,4'
p55
F0.34440310318596434
sS'rC:dA,9'
p56
F0.9704749999241472
sS'rC:dA,8'
p57
F0.7983980623148416
sS'rA:dG,20'
p58
F-0.48686491291094686
sS'rA:dG,3'
p59
F0.7617188955942904
sS'rA:dG,2'
p60
F0.8290738337444544
sS'rG:dA,20'
p61
F-0.8955002824397484
sS'rC:dT,20'
p62
F-0.81452072598922
sS'rC:dT,12'
p63
F-0.48936630279322946
sS'rG:dT,17'
p64
F-0.7845598582848656
sS'rC:dA,17'
p65
F-0.0013740427804790636
sS'rC:dA,16'
p66
F-0.20615771113224998
sS'rC:dA,15'
p67
F-0.6231102013115697
sS'rC:dA,14'
p68
F-0.6802780809032971
sS'rC:dA,13'
p69
F0.5534905516590282
sS'rC:dA,12'
p70
F0.9908388074174889
sS'rC:dA,11'
p71
F0.7062027170242332
sS'rC:dA,10'
p72
F0.6457762582914345
sS'rG:dG,11'
p73
F-0.8951549577674275
sS'rA:dC,20'
p74
F1.4481618644583347
sS'rC:dA,19'
p75
F-0.6919877141963694
sS'rG:dG,10'
p76
F-0.4356466875514968
sS'rU:dG,17'
p77
F-0.5821934057219749
sS'rU:dG,16'
p78
F-0.9908416619014005
sS'rU:dG,15'
p79
F-1.292875868206646
sS'rU:dG,14'
p80
F-0.29276499375398984
sS'rU:dG,13'
p81
F0.1995618015017863
sS'rU:dC,20'
p82
F0.1601842445782457
sS'rU:dG,11'
p83
F-0.4873265112285369
sS'rU:dG,10'
p84
F0.6652495405772959
sS'rG:dA,7'
p85
F0.24574191360287345
sS'rG:dA,6'
p86
F0.4774087407810399
sS'rG:dA,5'
p87
F0.4536087724094623
sS'rG:dA,4'
p88
F0.5205671575447337
sS'rG:dA,3'
p89
F0.751222188701131
sS'rG:dA,2'
p90
F1.3008860682148597
sS'rG:dA,1'
p91
F1.8580421221639225
sS'rG:dT,7'
p92
F0.5116865682499142
sS'rG:dT,4'
p93
F0.5492477490929467
sS'rG:dG,6'
p94
F0.2265976724101935
sS'rU:dT,20'
p95
F-0.04993095991812351
sS'rC:dC,15'
p96
F-0.5920404287324375
sS'rC:dC,14'
p97
F-0.6362726315460753
sS'rC:dC,17'
p98
F-0.5976608524543718
sS'rC:dC,16'
p99
F-1.2015707803062843
sS'rC:dC,11'
p100
F0.373325131837311
sS'rC:dC,10'
p101
F0.31256155069401753
sS'rC:dC,13'
p102
F-0.1281082655698121
sS'rC:dC,12'
p103
F0.32489417238131274
sS'rC:dA,20'
p104
F-1.0354960144974266
sS'rC:dC,19'
p105
F-0.32612065244187266
sS'rC:dC,18'
p106
F-0.466543078396064
sS'rA:dA,1'
p107
F1.0255651562101964
sS'rA:dA,3'
p108
F0.5607999928956009
sS'rA:dA,2'
p109
F1.0599320139942143
sS'rA:dA,5'
p110
F0.7479902250111327
sS'rA:dA,4'
p111
F0.38382326697148056
sS'rA:dA,7'
p112
F0.8450700787376851
sS'rA:dA,6'
p113
F0.8362751030692119
sS'rA:dA,9'
p114
F1.2091695542779786
sS'rA:dA,8'
p115
F1.0241176502349603
sS'rU:dG,20'
p116
F-1.0799678035446105
sS'rU:dT,12'
p117
F-0.8663230507544197
sS'rU:dT,13'
p118
F-0.9036173886305351
sS'rU:dT,10'
p119
F0.17769327306437244
sS'rU:dT,11'
p120
F-0.6823908528120393
sS'rU:dT,16'
p121
F-1.5854116916472392
sS'rU:dT,17'
p122
F-1.0118458362411722
sS'rU:dT,14'
p123
F-0.7195438442854978
sS'rU:dT,15'
p124
F-0.8881745940255469
sS'rC:dC,1'
p125
F1.2665108618185585
sS'rU:dT,18'
p126
F-0.3625836881950496
sS'rC:dC,2'
p127
F0.9612105537919543
sS'rC:dC,5'
p128
F0.5167858000164123
sS'rC:dC,4'
p129
F0.024494776767078768
sS'rC:dC,7'
p130
F0.32666698265801836
sS'rC:dC,6'
p131
F0.8366543973995105
sS'rA:dC,2'
p132
F0.9892212883787226
sS'rU:dT,8'
p133
F0.06681770836036988
sS'rU:dT,9'
p134
F0.19472683094597307
sS'rA:dC,11'
p135
F1.2186290677782692
sS'rA:dC,19'
p136
F0.3946500947022505
sS'rA:dC,18'
p137
F0.619883971038452
sS'rA:dC,17'
p138
F0.6513375745456553
sS'rA:dC,16'
p139
F0.7555572453645654
sS'rA:dC,15'
p140
F0.7986680714063311
sS'rU:dT,3'
p141
F0.7219583698167873
sS'rU:dT,4'
p142
F0.16182060515997304
sS'rC:dA,18'
p143
F-0.027100789005710287
sS'rU:dT,6'
p144
F0.38732948320259053
sS'rA:dC,10'
p145
F1.4568922117579803
sS'rC:dT,10'
p146
F0.07413932016549162
sS'rU:dT,5'
p147
F0.017567403703549315
sS'rC:dT,8'
p148
F-0.1058857533059118
sS'rC:dT,9'
p149
F-0.04904120806406597
sS'rC:dT,6'
p150
F0.054504355248945056
sS'rC:dT,7'
p151
F-0.1409978640473952
sS'rC:dT,4'
p152
F-0.5479441245842754
sS'rC:dT,5'
p153
F-0.24771605812733297
sS'rC:dT,2'
p154
F1.0341576898132665
sS'rA:dC,9'
p155
F1.1597769945202796
sS'rC:dT,1'
p156
F1.4831648467144727
sS'rA:dC,8'
p157
F1.5782289129932334
sS'rU:dT,1'
p158
F1.2371590350872428
sS'rC:dT,14'
p159
F-0.8753752210102175
sS'rU:dT,2'
p160
F0.5916301907388382
sS'rU:dG,19'
p161
F-0.26901219635140994
sS'rG:dT,14'
p162
F-0.16307275145979408
sS'rG:dT,15'
p163
F0.5282551471142712
sS'rG:dT,16'
p164
F-0.7562769243641294
sS'rA:dC,14'
p165
F0.5553680617762702
sS'rG:dG,20'
p166
F-1.1834620661672732
sS'rG:dT,11'
p167
F0.4936143185718858
sS'rG:dT,12'
p168
F0.31143589074189676
sS'rG:dT,13'
p169
F-0.1541247450803117
sS'rA:dG,7'
p170
F0.5737869673767495
sS'rA:dC,13'
p171
F0.8462651688608005
sS'rA:dG,5'
p172
F0.45305848851196134
sS'rA:dG,4'
p173
F1.0892916387272769
sS'rG:dT,18'
p174
F-0.6748949081085814
sS'rG:dT,19'
p175
F-0.6465855227623738
sS'rA:dG,1'
p176
F0.8846962119060244
sS'rA:dC,12'
p177
F1.002184413820751
sS'rG:dG,1'
p178
F1.6775397109083943
sS'rG:dT,3'
p179
F0.48277443755146815
sS'rG:dG,3'
p180
F0.2164734864871313
sS'rG:dG,2'
p181
F1.0934747883003708
sS'rG:dG,5'
p182
F0.1776114605102188
sS'rG:dG,4'
p183
F-0.03407946818402821
sS'rG:dG,7'
p184
F-0.004276014706334078
sS'rG:dT,5'
p185
F0.6786291025304322
sS'rG:dG,9'
p186
F0.27257315137600946
sS'rG:dG,8'
p187
F0.10583361462424677
sS'rG:dT,8'
p188
F0.5635410892189431
sS'rG:dT,9'
p189
F0.6142770598691413
sS'rU:dG,18'
p190
F-0.1139526542149138
sS'rU:dT,7'
p191
F-0.013694638199847446
sS'rA:dG,6'
p192
F0.949752796008613
sS'rG:dT,6'
p193
F0.6787225776669147
sS'rA:dA,20'
p194
F-0.2323870268666846
sS'rA:dC,5'
p195
F1.0781801869459797
sS'rA:dG,17'
p196
F-0.20732816198319767
sS'rU:dC,8'
p197
F0.09623830461531911
sS'rA:dG,16'
p198
F0.45818155472107197
sS'rG:dT,2'
p199
F1.3658004491157405
sS'rA:dG,19'
p200
F-1.118034399553633
sS'rU:dG,3'
p201
F1.079664387546488
sS'rU:dG,2'
p202
F0.7549357120892741
sS'rU:dG,1'
p203
F1.1120387603782667
sS'rA:dG,18'
p204
F-0.19757141880166557
sS'rU:dG,7'
p205
F0.5143188931295508
sS'rU:dG,6'
p206
F0.976309720205299
sS'rU:dG,5'
p207
F0.5396532948751938
sS'rU:dG,4'
p208
F0.4756669920810496
sS'rU:dG,9'
p209
F1.042783696625118
sS'rU:dG,8'
p210
F0.8775685465902193
sS'rC:dT,11'
p211
F-0.13240472243798063
sS'rC:dT,3'
p212
F-0.3744939110427897
sS'rU:dC,19'
p213
F-0.13887031629834914
sS'rU:dC,18'
p214
F-0.09959616382448239
sS'rU:dC,13'
p215
F-0.37568833327503254
sS'rU:dC,12'
p216
F-0.7582177445171304
sS'rU:dC,11'
p217
F-0.6679037695209858
sS'rU:dC,10'
p218
F0.3827810843787332
sS'rU:dC,17'
p219
F-0.6349938821701898
sS'rU:dC,16'
p220
F-1.8889170875615167
sS'rU:dC,15'
p221
F-1.6428834445508016
sS'rU:dC,14'
p222
F-0.840049000338901
sS'rU:dC,7'
p223
F-0.3511298447782069
sS'rU:dC,6'
p224
F0.10840932343683507
sS'rU:dC,5'
p225
F-0.5601802903969797
sS'rU:dC,4'
p226
F-0.7013387604406225
sS'rU:dC,3'
p227
F0.12809839843314327
sS'rU:dC,2'
p228
F0.20993404127882642
sS'rU:dC,1'
p229
F1.0980431290712187
sS'rC:dT,17'
p230
F-0.9755091151949824
sS'rA:dC,3'
p231
F0.8164720170831441
sS'rC:dT,19'
p232
F-0.984380964709951
sS'rA:dC,1'
p233
F1.0681248722426737
sS'rA:dC,7'
p234
F1.2256486967887124
sS'rA:dC,6'
p235
F1.2240092519956431
sS'rU:dC,9'
p236
F0.19635492754675765
sS'rG:dA,9'
p237
F0.5250555137801388
sS'rU:dT,19'
p238
F-0.16372172704601715
sS'rC:dT,16'
p239
F-1.5729004413834193
sS'rG:dT,1'
p240
F1.827977889866504
s.