(dp0
S'rC:dC,9'
p1
F0.583333333333
sS'rC:dC,8'
p2
F0.4
sS'rG:dA,8'
p3
F0.846153846154
sS'rG:dG,19'
p4
F0.33333333333299997
sS'rG:dG,18'
p5
F0.0
sS'rG:dG,15'
p6
F0.5
sS'rG:dG,14'
p7
F0.428571429
sS'rG:dG,17'
p8
F0.0
sS'rG:dG,16'
p9
F0.25
sS'rC:dC,20'
p10
F0.357142857143
sS'rG:dT,20'
p11
F0.5714285714289999
sS'rG:dG,13'
p12
F0.5
sS'rG:dG,12'
p13
F0.7
sS'rC:dT,13'
p14
F0.5
sS'rC:dT,18'
p15
F0.4
sS'rC:dC,3'
p16
F0.8
sS'rU:dG,12'
p17
F0.555555555556
sS'rA:dG,13'
p18
F0.666666666667
sS'rA:dG,12'
p19
F0.416666666667
sS'rA:dG,11'
p20
F0.733333333333
sS'rA:dG,10'
p21
F0.714285714286
sS'rA:dA,19'
p22
F0.0
sS'rA:dA,18'
p23
F0.33333333333299997
sS'rA:dG,15'
p24
F0.75
sS'rA:dG,14'
p25
F0.5
sS'rA:dA,15'
p26
F0.7272727272730001
sS'rA:dA,14'
p27
F0.5
sS'rA:dA,17'
p28
F0.7
sS'rA:dA,16'
p29
F0.45454545454499995
sS'rA:dA,11'
p30
F0.8571428571430001
sS'rA:dA,10'
p31
F0.8571428571430001
sS'rA:dA,13'
p32
F0.357142857143
sS'rA:dA,12'
p33
F0.666666666667
sS'rG:dA,13'
p34
F0.5
sS'rG:dA,12'
p35
F0.666666666667
sS'rG:dA,11'
p36
F0.416666666667
sS'rG:dA,10'
p37
F0.583333333333
sS'rG:dA,17'
p38
F0.666666666667
sS'rG:dA,16'
p39
F0.5
sS'rG:dA,15'
p40
F0.33333333333299997
sS'rG:dA,14'
p41
F0.0
sS'rG:dT,10'
p42
F0.583333333333
sS'rG:dA,19'
p43
F0.5
sS'rG:dA,18'
p44
F0.5
sS'rC:dT,15'
p45
F0.428571428571
sS'rA:dC,4'
p46
F0.65
sS'rA:dG,9'
p47
F0.533333333333
sS'rA:dG,8'
p48
F0.555555555556
sS'rC:dA,3'
p49
F0.75
sS'rC:dA,2'
p50
F0.631578947368
sS'rC:dA,1'
p51
F0.6818181818179999
sS'rC:dA,7'
p52
F0.5714285714289999
sS'rC:dA,6'
p53
F0.7037037037039999
sS'rC:dA,5'
p54
F0.5652173913040001
sS'rC:dA,4'
p55
F0.5714285714289999
sS'rC:dA,9'
p56
F0.7647058823530001
sS'rC:dA,8'
p57
F0.631578947368
sS'rA:dG,20'
p58
F0.555555555556
sS'rA:dG,3'
p59
F0.4375
sS'rA:dG,2'
p60
F0.666666666667
sS'rG:dA,20'
p61
F0.0
sS'rC:dT,20'
p62
F0.666666666667
sS'rC:dT,12'
p63
F0.375
sS'rG:dT,17'
p64
F0.4
sS'rC:dA,17'
p65
F0.6875
sS'rC:dA,16'
p66
F0.46153846153800004
sS'rC:dA,15'
p67
F0.6
sS'rC:dA,14'
p68
F0.75
sS'rC:dA,13'
p69
F0.666666666667
sS'rC:dA,12'
p70
F0.75
sS'rC:dA,11'
p71
F0.45
sS'rC:dA,10'
p72
F0.529411764706
sS'rG:dG,11'
p73
F0.444444444444
sS'rA:dC,20'
p74
F0.7647058823530001
sS'rC:dA,19'
p75
F0.625
sS'rG:dG,10'
p76
F0.444444444444
sS'rU:dG,17'
p77
F0.714285714286
sS'rU:dG,16'
p78
F0.5
sS'rU:dG,15'
p79
F1.0
sS'rU:dG,14'
p80
F0.5
sS'rU:dG,13'
p81
F0.6
sS'rU:dC,20'
p82
F0.666666666667
sS'rU:dG,11'
p83
F1.0
sS'rU:dG,10'
p84
F0.7894736842110001
sS'rG:dA,7'
p85
F0.785714285714
sS'rG:dA,6'
p86
F0.692307692308
sS'rG:dA,5'
p87
F0.714285714286
sS'rG:dA,4'
p88
F0.6
sS'rG:dA,3'
p89
F0.714285714286
sS'rG:dA,2'
p90
F0.69696969697
sS'rG:dA,1'
p91
F0.862068965517
sS'rG:dT,7'
p92
F0.5625
sS'rG:dT,4'
p93
F0.722222222222
sS'rG:dG,6'
p94
F0.4
sS'rU:dT,20'
p95
F0.5
sS'rC:dC,15'
p96
F0.8
sS'rC:dC,14'
p97
F0.666666666667
sS'rC:dC,17'
p98
F0.2
sS'rC:dC,16'
p99
F0.153846154
sS'rC:dC,11'
p100
F0.692307692308
sS'rC:dC,10'
p101
F0.4375
sS'rC:dC,13'
p102
F0.7272727272730001
sS'rC:dC,12'
p103
F0.666666666667
sS'rC:dA,20'
p104
F0.666666666667
sS'rC:dC,19'
p105
F0.5
sS'rC:dC,18'
p106
F0.714285714286
sS'rA:dA,1'
p107
F0.714285714286
sS'rA:dA,3'
p108
F0.538461538462
sS'rA:dA,2'
p109
F0.647058823529
sS'rA:dA,5'
p110
F0.666666666667
sS'rA:dA,4'
p111
F0.583333333333
sS'rA:dA,7'
p112
F0.7647058823530001
sS'rA:dA,6'
p113
F0.647058823529
sS'rA:dA,9'
p114
F0.875
sS'rA:dA,8'
p115
F0.7727272727269999
sS'rU:dG,20'
p116
F0.5
sS'rU:dT,12'
p117
F0.6
sS'rU:dT,13'
p118
F0.33333333333299997
sS'rU:dT,10'
p119
F0.6842105263160001
sS'rU:dT,11'
p120
F0.5714285714289999
sS'rU:dT,16'
p121
F0.9090909090000001
sS'rU:dT,17'
p122
F0.0
sS'rU:dT,14'
p123
F0.444444444444
sS'rU:dT,15'
p124
F0.33333333333299997
sS'rC:dC,1'
p125
F0.6842105263160001
sS'rU:dT,18'
p126
F0.555555555556
sS'rC:dC,2'
p127
F0.733333333333
sS'rC:dC,5'
p128
F0.75
sS'rC:dC,4'
p129
F0.5
sS'rC:dC,7'
p130
F0.38461538461499994
sS'rC:dC,6'
p131
F0.6
sS'rA:dC,2'
p132
F0.875
sS'rU:dT,8'
p133
F0.555555555556
sS'rU:dT,9'
p134
F0.6
sS'rA:dC,11'
p135
F0.7647058823530001
sS'rA:dC,19'
p136
F0.33333333333299997
sS'rA:dC,18'
p137
F0.416666666667
sS'rA:dC,17'
p138
F0.611111111111
sS'rA:dC,16'
p139
F0.5714285714289999
sS'rA:dC,15'
p140
F0.5
sS'rU:dT,3'
p141
F0.611111111111
sS'rU:dT,4'
p142
F0.636363636364
sS'rC:dA,18'
p143
F0.692307692308
sS'rU:dT,6'
p144
F0.636363636364
sS'rA:dC,10'
p145
F0.9375
sS'rC:dT,10'
p146
F0.46666666666699996
sS'rU:dT,5'
p147
F0.8
sS'rC:dT,8'
p148
F0.428571428571
sS'rC:dT,9'
p149
F0.615384615385
sS'rC:dT,6'
p150
F0.75
sS'rC:dT,7'
p151
F0.4
sS'rC:dT,4'
p152
F0.8571428571430001
sS'rC:dT,5'
p153
F0.666666666667
sS'rC:dT,2'
p154
F0.705882352941
sS'rA:dC,9'
p155
F0.45454545454499995
sS'rC:dT,1'
p156
F0.7272727272730001
sS'rA:dC,8'
p157
F0.653846153846
sS'rU:dT,1'
p158
F0.826086956522
sS'rC:dT,14'
p159
F0.33333333333299997
sS'rU:dT,2'
p160
F0.888888888889
sS'rU:dG,19'
p161
F0.5
sS'rG:dT,14'
p162
F0.555555555556
sS'rG:dT,15'
p163
F0.739130434783
sS'rG:dT,16'
p164
F0.428571428571
sS'rA:dC,14'
p165
F0.777777777778
sS'rG:dG,20'
p166
F0.0
sS'rG:dT,11'
p167
F0.611111111111
sS'rG:dT,12'
p168
F0.588235294118
sS'rG:dT,13'
p169
F0.625
sS'rA:dG,7'
p170
F0.6
sS'rA:dC,13'
p171
F0.705882352941
sS'rA:dG,5'
p172
F0.666666666667
sS'rA:dG,4'
p173
F0.578947368421
sS'rG:dT,18'
p174
F0.5714285714289999
sS'rG:dT,19'
p175
F0.5
sS'rA:dG,1'
p176
F0.5625
sS'rA:dC,12'
p177
F0.7647058823530001
sS'rG:dG,1'
p178
F0.793103448276
sS'rG:dT,3'
p179
F0.625
sS'rG:dG,3'
p180
F0.642857142857
sS'rG:dG,2'
p181
F0.7037037037039999
sS'rG:dG,5'
p182
F0.47368421052599996
sS'rG:dG,4'
p183
F0.6
sS'rG:dG,7'
p184
F0.615384615385
sS'rG:dT,5'
p185
F0.625
sS'rG:dG,9'
p186
F0.722222222222
sS'rG:dG,8'
p187
F0.5
sS'rG:dT,8'
p188
F0.642857142857
sS'rG:dT,9'
p189
F0.68
sS'rU:dG,18'
p190
F0.5
sS'rU:dT,7'
p191
F0.6
sS'rA:dG,6'
p192
F0.7647058823530001
sS'rG:dT,6'
p193
F0.6875
sS'rA:dA,20'
p194
F0.6
sS'rA:dC,5'
p195
F0.647058823529
sS'rA:dG,17'
p196
F0.5
sS'rU:dC,8'
p197
F0.46153846153800004
sS'rA:dG,16'
p198
F0.615384615385
sS'rG:dT,2'
p199
F0.655172413793
sS'rA:dG,19'
p200
F0.666666666667
sS'rU:dG,3'
p201
F0.75
sS'rU:dG,2'
p202
F0.615384615385
sS'rU:dG,1'
p203
F0.85
sS'rA:dG,18'
p204
F0.5
sS'rU:dG,7'
p205
F0.588235294118
sS'rU:dG,6'
p206
F0.6875
sS'rU:dG,5'
p207
F0.625
sS'rU:dG,4'
p208
F0.45454545454499995
sS'rU:dG,9'
p209
F0.611111111111
sS'rU:dG,8'
p210
F0.736842105263
sS'rC:dT,11'
p211
F0.888888888889
sS'rC:dT,3'
p212
F0.7272727272730001
sS'rU:dC,19'
p213
F0.583333333333
sS'rU:dC,18'
p214
F0.545454545455
sS'rU:dC,13'
p215
F0.666666666667
sS'rU:dC,12'
p216
F0.714285714286
sS'rU:dC,11'
p217
F0.3
sS'rU:dC,10'
p218
F0.733333333333
sS'rU:dC,17'
p219
F0.5
sS'rU:dC,16'
p220
F0.346153846
sS'rU:dC,15'
p221
F0.5
sS'rU:dC,14'
p222
F0.8
sS'rU:dC,7'
p223
F0.7
sS'rU:dC,6'
p224
F0.555555555556
sS'rU:dC,5'
p225
F0.25
sS'rU:dC,4'
p226
F0.666666666667
sS'rU:dC,3'
p227
F0.7272727272730001
sS'rU:dC,2'
p228
F0.875
sS'rU:dC,1'
p229
F0.7727272727269999
sS'rC:dT,17'
p230
F0.5
sS'rA:dC,3'
p231
F0.642857142857
sS'rC:dT,19'
p232
F0.28571428571400004
sS'rA:dC,1'
p233
F0.538461538462
sS'rA:dC,7'
p234
F0.666666666667
sS'rA:dC,6'
p235
F0.578947368421
sS'rU:dC,9'
p236
F0.777777777778
sS'rG:dA,9'
p237
F0.722222222222
sS'rU:dT,19'
p238
F0.6
sS'rC:dT,16'
p239
F1.0
sS'rG:dT,1'
p240
F0.833333333333
s.