(dp0
S'rC:dC,9'
p1
F2.4453709912600563
sS'rC:dC,8'
p2
F2.4447597408113357
sS'rG:dA,8'
p3
F2.453302822872145
sS'rG:dG,19'
p4
F2.238773561908367
sS'rG:dG,18'
p5
F2.2396557389250913
sS'rG:dG,15'
p6
F2.340677123898379
sS'rG:dG,14'
p7
F2.3467019388298893
sS'rG:dG,17'
p8
F2.2374781540312307
sS'rG:dG,16'
p9
F2.224815340278769
sS'rC:dC,20'
p10
F2.2812595899083945
sS'rG:dT,20'
p11
F2.2790814514784583
sS'rG:dG,13'
p12
F2.3602973673641263
sS'rG:dG,12'
p13
F2.4080955017776104
sS'rC:dT,13'
p14
F2.373318555568564
sS'rC:dT,18'
p15
F2.2650929437225127
sS'rC:dC,3'
p16
F2.483812500824322
sS'rU:dG,12'
p17
F2.4085267102011563
sS'rA:dG,13'
p18
F2.389960425831574
sS'rA:dG,12'
p19
F2.416524867934749
sS'rA:dG,11'
p20
F2.4277685905043063
sS'rA:dG,10'
p21
F2.435961234234297
sS'rA:dA,19'
p22
F2.2587079427145573
sS'rA:dA,18'
p23
F2.259590119731281
sS'rA:dG,15'
p24
F2.375260146954088
sS'rA:dG,14'
p25
F2.379666658520308
sS'rA:dA,15'
p26
F2.3575460179934526
sS'rA:dA,14'
p27
F2.362931218300244
sS'rA:dA,17'
p28
F2.257412534837421
sS'rA:dA,16'
p29
F2.24474972108496
sS'rA:dA,11'
p30
F2.4307143904353286
sS'rA:dA,10'
p31
F2.4465807502240233
sS'rA:dA,13'
p32
F2.3744893846590136
sS'rA:dA,12'
p33
F2.416585344369464
sS'rG:dA,13'
p34
F2.360862426207658
sS'rG:dA,12'
p35
F2.4110935786111902
sS'rG:dA,11'
p36
F2.426480359319094
sS'rG:dA,10'
p37
F2.4471772026211838
sS'rG:dA,17'
p38
F2.2395421086525333
sS'rG:dA,16'
p39
F2.2265090200261657
sS'rG:dA,15'
p40
F2.340705556475881
sS'rG:dA,14'
p41
F2.3468864863036494
sS'rG:dT,10'
p42
F2.44009390506126
sS'rG:dA,19'
p43
F2.2408375165296697
sS'rG:dA,18'
p44
F2.241719693546394
sS'rC:dT,15'
p45
F2.3567444429283873
sS'rA:dC,4'
p46
F2.4561062306913706
sS'rA:dG,9'
p47
F2.43921021065355
sS'rA:dG,8'
p48
F2.438598960204829
sS'rC:dA,3'
p49
F2.4874540939173078
sS'rC:dA,2'
p50
F2.520930086768501
sS'rC:dA,1'
p51
F2.548567163609851
sS'rC:dA,7'
p52
F2.4489081759351663
sS'rC:dA,6'
p53
F2.4500336554902713
sS'rC:dA,5'
p54
F2.451513544799121
sS'rC:dA,4'
p55
F2.4582565663062503
sS'rC:dA,9'
p56
F2.449012584353042
sS'rC:dA,8'
p57
F2.4484013339043207
sS'rA:dG,20'
p58
F2.3042143017363044
sS'rA:dG,3'
p59
F2.472389289153622
sS'rA:dG,2'
p60
F2.5029753920116633
sS'rG:dA,20'
p61
F2.258434150142762
sS'rC:dT,20'
p62
F2.2818074003188817
sS'rC:dT,12'
p63
F2.4099356306534094
sS'rG:dT,17'
p64
F2.2601894099882296
sS'rC:dA,17'
p65
F2.255582757421376
sS'rC:dA,16'
p66
F2.2429199436689147
sS'rC:dA,15'
p67
F2.3531845925404022
sS'rC:dA,14'
p68
F2.3589036939496117
sS'rC:dA,13'
p69
F2.370982753135152
sS'rC:dA,12'
p70
F2.4127932295459487
sS'rC:dA,11'
p71
F2.426179877659695
sS'rC:dA,10'
p72
F2.4431669728406202
sS'rG:dG,11'
p73
F2.4222252530979844
sS'rA:dC,20'
p74
F2.3091348717681752
sS'rC:dA,19'
p75
F2.256878165298512
sS'rG:dG,10'
p76
F2.4399724254589366
sS'rU:dG,17'
p77
F2.2462601785545306
sS'rU:dG,16'
p78
F2.233227089928163
sS'rU:dG,15'
p79
F2.3406499907853964
sS'rU:dG,14'
p80
F2.3464093366556353
sS'rU:dG,13'
p81
F2.3603852765596445
sS'rU:dC,20'
p82
F2.279999561063381
sS'rU:dG,11'
p83
F2.42437809499084
sS'rU:dG,10'
p84
F2.4443012231493473
sS'rG:dA,7'
p85
F2.453617347232156
sS'rG:dA,6'
p86
F2.454742826787261
sS'rG:dA,5'
p87
F2.4562227160961108
sS'rG:dA,4'
p88
F2.463257332259955
sS'rG:dA,3'
p89
F2.495167000882346
sS'rG:dA,2'
p90
F2.530009013630867
sS'rG:dA,1'
p91
F2.5582205731681076
sS'rG:dT,7'
p92
F2.445380790900791
sS'rG:dT,4'
p93
F2.4547291812718752
sS'rG:dG,6'
p94
F2.446595239380549
sS'rU:dT,20'
p95
F2.270474661905925
sS'rC:dC,15'
p96
F2.3597685884074937
sS'rC:dC,14'
p97
F2.3648514993938567
sS'rC:dC,17'
p98
F2.262367548418166
sS'rC:dC,16'
p99
F2.249704734665705
sS'rC:dC,11'
p100
F2.424740059631553
sS'rC:dC,10'
p101
F2.4399696434051554
sS'rC:dC,13'
p102
F2.376095371130687
sS'rC:dC,12'
p103
F2.4119498505233286
sS'rC:dA,20'
p104
F2.2744747989116045
sS'rC:dC,19'
p105
F2.263662956295302
sS'rC:dC,18'
p106
F2.264545133312026
sS'rA:dA,1'
p107
F2.5500915639442256
sS'rA:dA,3'
p108
F2.4889784942516817
sS'rA:dA,2'
p109
F2.522454487102875
sS'rA:dA,5'
p110
F2.45376334423575
sS'rA:dA,4'
p111
F2.460274831735349
sS'rA:dA,7'
p112
F2.4514070601439713
sS'rA:dA,6'
p113
F2.4522834549269
sS'rA:dA,9'
p114
F2.451960741925942
sS'rA:dA,8'
p115
F2.451349491477221
sS'rU:dG,20'
p116
F2.265152220044759
sS'rU:dT,12'
p117
F2.407535608038072
sS'rU:dT,13'
p118
F2.362380381736449
sS'rU:dT,10'
p119
F2.443431797054306
sS'rU:dT,11'
p120
F2.4240730954142378
sS'rU:dT,16'
p121
F2.238549531789329
sS'rU:dT,17'
p122
F2.251582620415696
sS'rU:dT,14'
p123
F2.34923962928115
sS'rU:dT,15'
p124
F2.3436948898762293
sS'rC:dC,1'
p125
F2.545809369791548
sS'rU:dT,18'
p126
F2.253760205309556
sS'rC:dC,2'
p127
F2.517597810254307
sS'rC:dC,5'
p128
F2.4478719517061354
sS'rC:dC,4'
p129
F2.4546149732132654
sS'rC:dC,7'
p130
F2.4452665828421805
sS'rC:dC,6'
p131
F2.4463920623972855
sS'rA:dC,2'
p132
F2.518285886058897
sS'rU:dT,8'
p133
F2.449400358980438
sS'rU:dT,9'
p134
F2.450011609429158
sS'rA:dC,11'
p135
F2.434213161409765
sS'rA:dC,19'
p136
F2.291538238155083
sS'rA:dC,18'
p137
F2.2924204151718066
sS'rA:dC,17'
p138
F2.2902428302779465
sS'rA:dC,16'
p139
F2.2775800165254854
sS'rA:dC,15'
p140
F2.3835665841392712
sS'rU:dT,3'
p141
F2.4960207296647545
sS'rU:dT,4'
p142
F2.4595471860390816
sS'rC:dA,18'
p143
F2.257760342315236
sS'rU:dT,6'
p144
F2.451032680566388
sS'rA:dC,10'
p145
F2.444489516051014
sS'rC:dT,10'
p146
F2.439551180186409
sS'rU:dT,5'
p147
F2.4525125698752377
sS'rC:dT,8'
p148
F2.444341277592589
sS'rC:dT,9'
p149
F2.44495252804131
sS'rC:dT,6'
p150
F2.445973599178539
sS'rC:dT,7'
p151
F2.4448481196234337
sS'rC:dT,4'
p152
F2.4541965099945187
sS'rC:dT,5'
p153
F2.447453488487389
sS'rC:dT,2'
p154
F2.5171031180403522
sS'rA:dC,9'
p155
F2.447792140881964
sS'rC:dT,1'
p156
F2.5447401948817028
sS'rA:dC,8'
p157
F2.447180890433243
sS'rU:dT,1'
p158
F2.559539498673806
sS'rC:dT,14'
p159
F2.3618273539147503
sS'rU:dT,2'
p160
F2.5313279391365646
sS'rU:dG,19'
p161
F2.2475555864316665
sS'rG:dT,14'
p162
F2.363088715011897
sS'rG:dT,15'
p163
F2.358005804025534
sS'rG:dT,16'
p164
F2.247526596235769
sS'rA:dC,14'
p165
F2.3877819536950953
sS'rG:dG,20'
p166
F2.256370195521459
sS'rG:dT,11'
p167
F2.424250784481887
sS'rG:dT,12'
p168
F2.4108321866095315
sS'rG:dT,13'
p169
F2.374332586748727
sS'rA:dG,7'
p170
F2.438656528871579
sS'rA:dC,13'
p171
F2.3972836564640962
sS'rA:dG,5'
p172
F2.4399678883859495
sS'rA:dG,4'
p173
F2.4453102532425772
sS'rG:dT,18'
p174
F2.2623669948820897
sS'rG:dT,19'
p175
F2.261484817865366
sS'rA:dG,1'
p176
F2.530612468853014
sS'rA:dC,12'
p177
F2.422485466894463
sS'rG:dG,1'
p178
F2.546557473491181
sS'rG:dT,3'
p179
F2.4836659313717915
sS'rG:dG,3'
p180
F2.484116311300085
sS'rG:dG,2'
p181
F2.518345913953941
sS'rG:dG,5'
p182
F2.448075128689399
sS'rG:dG,4'
p183
F2.454818150196528
sS'rG:dG,7'
p184
F2.445469759825444
sS'rG:dT,5'
p185
F2.447986159764746
sS'rG:dG,9'
p186
F2.445766485914154
sS'rG:dG,8'
p187
F2.445155235465433
sS'rG:dT,8'
p188
F2.4450662665407803
sS'rG:dT,9'
p189
F2.4456775169895013
sS'rU:dG,18'
p190
F2.2484377634483903
sS'rU:dT,7'
p191
F2.449907201011283
sS'rA:dG,6'
p192
F2.439078038620669
sS'rG:dT,6'
p193
F2.446506270455896
sS'rA:dA,20'
p194
F2.2763045763276497
sS'rA:dC,5'
p195
F2.4495947431917715
sS'rA:dG,17'
p196
F2.2853222602460757
sS'rU:dC,8'
p197
F2.45062868798474
sS'rA:dG,16'
p198
F2.272659446493614
sS'rG:dT,2'
p199
F2.5178955340256475
sS'rA:dG,19'
p200
F2.286617668123212
sS'rU:dG,3'
p201
F2.4982927295682065
sS'rU:dG,2'
p202
F2.534129438268974
sS'rU:dG,1'
p203
F2.5623409978062144
sS'rA:dG,18'
p204
F2.2874998451399358
sS'rU:dG,7'
p205
F2.450987075633299
sS'rU:dG,6'
p206
F2.4521125551884047
sS'rU:dG,5'
p207
F2.453592444497254
sS'rU:dG,4'
p208
F2.460627060661099
sS'rU:dG,9'
p209
F2.4510914840511755
sS'rU:dG,8'
p210
F2.4504802336024545
sS'rC:dT,11'
p211
F2.424362009752773
sS'rC:dT,3'
p212
F2.483627125189159
sS'rU:dC,19'
p213
F2.262402927450289
sS'rU:dC,18'
p214
F2.263285104467013
sS'rU:dC,13'
p215
F2.3672771944141484
sS'rU:dC,12'
p216
F2.410059326864693
sS'rU:dC,11'
p217
F2.424608296705935
sS'rU:dC,10'
p218
F2.4446601260586083
sS'rU:dC,17'
p219
F2.2611075195731525
sS'rU:dC,16'
p220
F2.248074430946785
sS'rU:dC,15'
p221
F2.351218797853708
sS'rU:dC,14'
p222
F2.3558358372212327
sS'rU:dC,7'
p223
F2.4511355300155846
sS'rU:dC,6'
p224
F2.45226100957069
sS'rU:dC,5'
p225
F2.4537408988795395
sS'rU:dC,4'
p226
F2.460775515043384
sS'rU:dC,3'
p227
F2.498441183950492
sS'rU:dC,2'
p228
F2.534277892651259
sS'rU:dC,1'
p229
F2.5624894521884998
sS'rC:dT,17'
p230
F2.262915358828653
sS'rA:dC,3'
p231
F2.484809893207703
sS'rC:dT,19'
p232
F2.264210766705789
sS'rA:dC,1'
p233
F2.5459229629002476
sS'rA:dC,7'
p234
F2.4472384590999927
sS'rA:dC,6'
p235
F2.4481148538829216
sS'rU:dC,9'
p236
F2.451239938433461
sS'rG:dA,9'
p237
F2.453914073320866
sS'rU:dT,19'
p238
F2.2528780282928325
sS'rC:dT,16'
p239
F2.250252545076192
sS'rG:dT,1'
p240
F2.5461070935628882
s.